target datalayout = "e-m:e-p270:32:32-p271:32:32-p272:64:64-i64:64-i128:128-f80:128-n8:16:32:64-S128"
target triple = "x86_64-pc-linux-gnu"

%struct._zend_iconv_globals = type { ptr, ptr, ptr }
%struct._zend_executor_globals = type { %struct._zval_struct, %struct._zval_struct, [32 x ptr], ptr, ptr, %struct._zend_array, %struct._zend_array, ptr, i32, i8, %struct._zval_struct, i32, ptr, ptr, ptr, ptr, ptr, ptr, i64, ptr, ptr, i32, ptr, i32, i64, i32, i32, i32, i8, i8, %struct.zend_atomic_bool_s, %struct.zend_atomic_bool_s, ptr, i64, ptr, ptr, %struct._zend_array, %struct._zend_array, i32, i8, %struct._zval_struct, %struct._zval_struct, %struct._zend_stack, %struct._zend_stack, %struct._zend_stack, ptr, i32, i32, i64, ptr, ptr, ptr, %struct._zend_objects_store, %struct._zend_lazy_objects_store, ptr, ptr, ptr, [3 x %struct._zend_op], ptr, i8, i8, i64, i32, i32, ptr, [16 x %struct._HashTableIterator], ptr, %union._zend_function, %struct._zend_op, %struct._zend_array, i64, %struct.zend_get_gc_buffer, ptr, ptr, ptr, i64, i8, i32, ptr, ptr, i64, %struct._zend_call_stack, i64, i64, %struct._zend_strtod_state, [6 x ptr] }
%struct.zend_atomic_bool_s = type { i8 }
%struct._zval_struct = type { %union._zend_value, %union.anon, %union.anon.2 }
%union._zend_value = type { i64 }
%union.anon = type { i32 }
%union.anon.2 = type { i32 }
%struct._zend_stack = type { i32, i32, i32, ptr }
%struct._zend_objects_store = type { ptr, i32, i32, i32 }
%struct._zend_lazy_objects_store = type { %struct._zend_array }
%struct._HashTableIterator = type { ptr, i32, i32 }
%union._zend_function = type { %struct._zend_op_array }
%struct._zend_op_array = type { i8, [3 x i8], i32, ptr, ptr, ptr, i32, i32, ptr, ptr, ptr, ptr, i32, ptr, i32, i32, i32, ptr, ptr, ptr, ptr, ptr, i32, i32, ptr, ptr, ptr, i32, i32, i32, i32, ptr, ptr, [6 x ptr] }
%struct._zend_op = type { ptr, %union._znode_op, %union._znode_op, %union._znode_op, i32, i32, i8, i8, i8, i8 }
%union._znode_op = type { i32 }
%struct._zend_array = type { %struct._zend_refcounted_h, %union.anon.4, i32, %union.anon.6, i32, i32, i32, i32, i64, ptr }
%struct._zend_refcounted_h = type { i32, %union.anon.3 }
%union.anon.3 = type { i32 }
%union.anon.4 = type { i32 }
%union.anon.6 = type { ptr }
%struct.zend_get_gc_buffer = type { ptr, ptr, ptr }
%struct._zend_call_stack = type { ptr, i64 }
%struct._zend_strtod_state = type { [8 x ptr], ptr, ptr }
%struct._zend_string = type { %struct._zend_refcounted_h, i64, i64, [1 x i8] }
%struct._zend_execute_data = type { ptr, ptr, ptr, ptr, %struct._zval_struct, ptr, ptr, ptr, ptr }

@iconv_globals = hidden global %struct._zend_iconv_globals zeroinitializer, align 8
@executor_globals = external global %struct._zend_executor_globals, align 8
@.str.11 = private unnamed_addr constant [71 x i8] c"Encoding parameter exceeds the maximum allowed length of %d characters\00", align 1
@_generic_superset_name = internal constant [8 x i8] c"UCS-4LE\00", align 1
@.str.15 = private unnamed_addr constant [6 x i8] c"SS|s!\00", align 1

; Function Attrs: nounwind uwtable
define internal ptr @get_internal_encoding() #0 {
  %1 = alloca ptr, align 8
  %2 = load ptr, ptr getelementptr inbounds nuw (%struct._zend_iconv_globals, ptr @iconv_globals, i32 0, i32 1), align 8, !tbaa !20
  %3 = icmp ne ptr %2, null
  br i1 %3, label %4, label %12

4:                                                ; preds = %0
  %5 = load ptr, ptr getelementptr inbounds nuw (%struct._zend_iconv_globals, ptr @iconv_globals, i32 0, i32 1), align 8, !tbaa !20
  %6 = getelementptr inbounds i8, ptr %5, i64 0
  %7 = load i8, ptr %6, align 1, !tbaa !13
  %8 = sext i8 %7 to i32
  %9 = icmp ne i32 %8, 0
  br i1 %9, label %10, label %12

10:                                               ; preds = %4
  %11 = load ptr, ptr getelementptr inbounds nuw (%struct._zend_iconv_globals, ptr @iconv_globals, i32 0, i32 1), align 8, !tbaa !20
  store ptr %11, ptr %1, align 8
  br label %14

12:                                               ; preds = %4, %0
  %13 = call ptr @php_get_internal_encoding()
  store ptr %13, ptr %1, align 8
  br label %14

14:                                               ; preds = %12, %10
  %15 = load ptr, ptr %1, align 8
  ret ptr %15
}

; Function Attrs: nounwind uwtable
define hidden void @zif_iconv_strrpos(ptr noundef %0, ptr noundef %1) #0 {
  %3 = alloca ptr, align 8
  %4 = alloca ptr, align 8
  %5 = alloca ptr, align 8
  %6 = alloca i64, align 8
  %7 = alloca ptr, align 8
  %8 = alloca ptr, align 8
  %9 = alloca i32, align 4
  %10 = alloca i64, align 8
  %11 = alloca i32, align 4
  %12 = alloca ptr, align 8
  store ptr %0, ptr %3, align 8, !tbaa !39
  store ptr %1, ptr %4, align 8, !tbaa !11
  call void @llvm.lifetime.start.p0(i64 8, ptr %5) #15
  store ptr null, ptr %5, align 8, !tbaa !23
  call void @llvm.lifetime.start.p0(i64 8, ptr %6) #15
  call void @llvm.lifetime.start.p0(i64 8, ptr %7) #15
  call void @llvm.lifetime.start.p0(i64 8, ptr %8) #15
  call void @llvm.lifetime.start.p0(i64 4, ptr %9) #15
  call void @llvm.lifetime.start.p0(i64 8, ptr %10) #15
  %13 = load ptr, ptr %3, align 8, !tbaa !39
  %14 = getelementptr inbounds nuw %struct._zend_execute_data, ptr %13, i32 0, i32 4
  %15 = getelementptr inbounds nuw %struct._zval_struct, ptr %14, i32 0, i32 2
  %16 = load i32, ptr %15, align 4, !tbaa !13
  %17 = call i32 (i32, ptr, ...) @zend_parse_parameters(i32 noundef %16, ptr noundef @.str.15, ptr noundef %7, ptr noundef %8, ptr noundef %5, ptr noundef %6)
  %18 = icmp eq i32 %17, -1
  br i1 %18, label %19, label %25

19:                                               ; preds = %2
  br label %20

20:                                               ; preds = %19
  %21 = load ptr, ptr getelementptr inbounds nuw (%struct._zend_executor_globals, ptr @executor_globals, i32 0, i32 54), align 8, !tbaa !41
  %22 = icmp ne ptr %21, null
  call void @llvm.assume(i1 %22)
  store i32 1, ptr %11, align 4
  br label %96

23:                                               ; No predecessors!
  br label %24

24:                                               ; preds = %23
  br label %25

25:                                               ; preds = %24, %2
  %26 = load ptr, ptr %8, align 8, !tbaa !28
  %27 = getelementptr inbounds nuw %struct._zend_string, ptr %26, i32 0, i32 2
  %28 = load i64, ptr %27, align 8, !tbaa !31
  %29 = icmp ult i64 %28, 1
  br i1 %29, label %30, label %39

30:                                               ; preds = %25
  br label %31

31:                                               ; preds = %30
  br label %32

32:                                               ; preds = %31
  %33 = load ptr, ptr %4, align 8, !tbaa !11
  %34 = getelementptr inbounds nuw %struct._zval_struct, ptr %33, i32 0, i32 1
  store i32 2, ptr %34, align 8, !tbaa !13
  br label %35

35:                                               ; preds = %32
  br label %36

36:                                               ; preds = %35
  store i32 1, ptr %11, align 4
  br label %96

37:                                               ; No predecessors!
  br label %38

38:                                               ; preds = %37
  br label %39

39:                                               ; preds = %38, %25
  %40 = load ptr, ptr %5, align 8, !tbaa !23
  %41 = icmp eq ptr %40, null
  br i1 %41, label %42, label %44

42:                                               ; preds = %39
  %43 = call ptr @get_internal_encoding()
  store ptr %43, ptr %5, align 8, !tbaa !23
  br label %57

44:                                               ; preds = %39
  %45 = load i64, ptr %6, align 8, !tbaa !24
  %46 = icmp uge i64 %45, 64
  br i1 %46, label %47, label %56

47:                                               ; preds = %44
  call void (ptr, i32, ptr, ...) @php_error_docref(ptr noundef null, i32 noundef 2, ptr noundef @.str.11, i32 noundef 64)
  br label %48

48:                                               ; preds = %47
  br label %49

49:                                               ; preds = %48
  %50 = load ptr, ptr %4, align 8, !tbaa !11
  %51 = getelementptr inbounds nuw %struct._zval_struct, ptr %50, i32 0, i32 1
  store i32 2, ptr %51, align 8, !tbaa !13
  br label %52

52:                                               ; preds = %49
  br label %53

53:                                               ; preds = %52
  store i32 1, ptr %11, align 4
  br label %96

54:                                               ; No predecessors!
  br label %55

55:                                               ; preds = %54
  br label %56

56:                                               ; preds = %55, %44
  br label %57

57:                                               ; preds = %56, %42
  %58 = load ptr, ptr %7, align 8, !tbaa !28
  %59 = getelementptr inbounds nuw %struct._zend_string, ptr %58, i32 0, i32 3
  %60 = getelementptr inbounds [1 x i8], ptr %59, i64 0, i64 0
  %61 = load ptr, ptr %7, align 8, !tbaa !28
  %62 = getelementptr inbounds nuw %struct._zend_string, ptr %61, i32 0, i32 2
  %63 = load i64, ptr %62, align 8, !tbaa !31
  %64 = load ptr, ptr %8, align 8, !tbaa !28
  %65 = getelementptr inbounds nuw %struct._zend_string, ptr %64, i32 0, i32 3
  %66 = getelementptr inbounds [1 x i8], ptr %65, i64 0, i64 0
  %67 = load ptr, ptr %8, align 8, !tbaa !28
  %68 = getelementptr inbounds nuw %struct._zend_string, ptr %67, i32 0, i32 2
  %69 = load i64, ptr %68, align 8, !tbaa !31
  %70 = load ptr, ptr %5, align 8, !tbaa !23
  %71 = call i32 @_php_iconv_strpos(ptr noundef %10, ptr noundef %60, i64 noundef %63, ptr noundef %66, i64 noundef %69, i64 noundef 0, ptr noundef %70, i1 noundef zeroext true)
  store i32 %71, ptr %9, align 4, !tbaa !4
  %72 = load i32, ptr %9, align 4, !tbaa !4
  %73 = load ptr, ptr %5, align 8, !tbaa !23
  call void @_php_iconv_show_error(i32 noundef %72, ptr noundef @_generic_superset_name, ptr noundef %73)
  %74 = load i32, ptr %9, align 4, !tbaa !4
  %75 = icmp eq i32 %74, 0
  br i1 %75, label %76, label %89

76:                                               ; preds = %57
  %77 = load i64, ptr %10, align 8, !tbaa !24
  %78 = icmp ne i64 %77, -1
  br i1 %78, label %79, label %89

79:                                               ; preds = %76
  br label %80

80:                                               ; preds = %79
  call void @llvm.lifetime.start.p0(i64 8, ptr %12) #15
  %81 = load ptr, ptr %4, align 8, !tbaa !11
  store ptr %81, ptr %12, align 8, !tbaa !11
  %82 = load i64, ptr %10, align 8, !tbaa !24
  %83 = load ptr, ptr %12, align 8, !tbaa !11
  %84 = getelementptr inbounds nuw %struct._zval_struct, ptr %83, i32 0, i32 0
  store i64 %82, ptr %84, align 8, !tbaa !13
  %85 = load ptr, ptr %12, align 8, !tbaa !11
  %86 = getelementptr inbounds nuw %struct._zval_struct, ptr %85, i32 0, i32 1
  store i32 4, ptr %86, align 8, !tbaa !13
  call void @llvm.lifetime.end.p0(i64 8, ptr %12) #15
  br label %87

87:                                               ; preds = %80
  br label %88

88:                                               ; preds = %87
  br label %95

89:                                               ; preds = %76, %57
  br label %90

90:                                               ; preds = %89
  %91 = load ptr, ptr %4, align 8, !tbaa !11
  %92 = getelementptr inbounds nuw %struct._zval_struct, ptr %91, i32 0, i32 1
  store i32 2, ptr %92, align 8, !tbaa !13
  br label %93

93:                                               ; preds = %90
  br label %94

94:                                               ; preds = %93
  br label %95

95:                                               ; preds = %94, %88
  store i32 0, ptr %11, align 4
  br label %96

96:                                               ; preds = %95, %53, %36, %20
  call void @llvm.lifetime.end.p0(i64 8, ptr %10) #15
  call void @llvm.lifetime.end.p0(i64 4, ptr %9) #15
  call void @llvm.lifetime.end.p0(i64 8, ptr %8) #15
  call void @llvm.lifetime.end.p0(i64 8, ptr %7) #15
  call void @llvm.lifetime.end.p0(i64 8, ptr %6) #15
  call void @llvm.lifetime.end.p0(i64 8, ptr %5) #15
  %97 = load i32, ptr %11, align 4
  switch i32 %97, label %99 [
    i32 0, label %98
    i32 1, label %98
  ]

98:                                               ; preds = %96, %96
  ret void

99:                                               ; preds = %96
  unreachable
}