; Function Attrs: nounwind uwtable
define hidden void @zif_iconv_strrpos(ptr noundef readonly captures(none) %0, ptr noundef writeonly captures(none) %1) #0 {
  %3 = alloca ptr, align 8
  %4 = alloca i64, align 8
  %5 = alloca ptr, align 8
  %6 = alloca ptr, align 8
  %7 = alloca i64, align 8
  call void @llvm.lifetime.start.p0(i64 8, ptr nonnull %3) #16
  store ptr null, ptr %3, align 8, !tbaa !7
  call void @llvm.lifetime.start.p0(i64 8, ptr nonnull %4) #16
  call void @llvm.lifetime.start.p0(i64 8, ptr nonnull %5) #16
  call void @llvm.lifetime.start.p0(i64 8, ptr nonnull %6) #16
  call void @llvm.lifetime.start.p0(i64 8, ptr nonnull %7) #16
  %8 = getelementptr inbounds nuw i8, ptr %0, i64 44
  %9 = load i32, ptr %8, align 4, !tbaa !4
  %10 = call i32 (i32, ptr, ...) @zend_parse_parameters(i32 noundef %9, ptr noundef nonnull @.str.15, ptr noundef nonnull %5, ptr noundef nonnull %6, ptr noundef nonnull %3, ptr noundef nonnull %4) #16
  %11 = icmp eq i32 %10, -1
  br i1 %11, label %12, label %15

12:                                               ; preds = %2
  %13 = load ptr, ptr getelementptr inbounds nuw (i8, ptr @executor_globals, i64 960), align 8, !tbaa !22
  %14 = icmp ne ptr %13, null
  call void @llvm.assume(i1 %14)
  br label %54

15:                                               ; preds = %2
  %16 = load ptr, ptr %6, align 8, !tbaa !10
  %17 = getelementptr inbounds nuw i8, ptr %16, i64 16
  %18 = load i64, ptr %17, align 8, !tbaa !20
  %19 = icmp eq i64 %18, 0
  br i1 %19, label %20, label %22

20:                                               ; preds = %15
  %21 = getelementptr inbounds nuw i8, ptr %1, i64 8
  store i32 2, ptr %21, align 8, !tbaa !4
  br label %54

22:                                               ; preds = %15
  %23 = load ptr, ptr %3, align 8, !tbaa !7
  %24 = icmp eq ptr %23, null
  br i1 %24, label %25, label %31

25:                                               ; preds = %22
  %26 = load ptr, ptr getelementptr inbounds nuw (i8, ptr @iconv_globals, i64 8), align 8, !tbaa !52
  %.not.i = icmp eq ptr %26, null
  br i1 %.not.i, label %29, label %27

27:                                               ; preds = %25
  %28 = load i8, ptr %26, align 1, !tbaa !4
  %.not2.i = icmp eq i8 %28, 0
  br i1 %.not2.i, label %29, label %get_internal_encoding.exit

29:                                               ; preds = %27, %25
  %30 = call ptr @php_get_internal_encoding() #16
  %.pre.pre = load ptr, ptr %6, align 8, !tbaa !10
  %.phi.trans.insert.phi.trans.insert = getelementptr inbounds nuw i8, ptr %.pre.pre, i64 16
  %.pre9.pre = load i64, ptr %.phi.trans.insert.phi.trans.insert, align 8, !tbaa !20
  br label %get_internal_encoding.exit

get_internal_encoding.exit:                       ; preds = %27, %29
  %.pre9 = phi i64 [ %.pre9.pre, %29 ], [ %18, %27 ]
  %.pre = phi ptr [ %.pre.pre, %29 ], [ %16, %27 ]
  %.0.i = phi ptr [ %30, %29 ], [ %26, %27 ]
  store ptr %.0.i, ptr %3, align 8, !tbaa !7
  br label %36

31:                                               ; preds = %22
  %32 = load i64, ptr %4, align 8, !tbaa !14
  %33 = icmp ugt i64 %32, 63
  br i1 %33, label %34, label %36

34:                                               ; preds = %31
  call void (ptr, i32, ptr, ...) @php_error_docref(ptr noundef null, i32 noundef 2, ptr noundef nonnull @.str.11, i32 noundef 64) #16
  %35 = getelementptr inbounds nuw i8, ptr %1, i64 8
  store i32 2, ptr %35, align 8, !tbaa !4
  br label %54

36:                                               ; preds = %31, %get_internal_encoding.exit
  %37 = phi ptr [ %23, %31 ], [ %.0.i, %get_internal_encoding.exit ]
  %38 = phi i64 [ %18, %31 ], [ %.pre9, %get_internal_encoding.exit ]
  %39 = phi ptr [ %16, %31 ], [ %.pre, %get_internal_encoding.exit ]
  %40 = load ptr, ptr %5, align 8, !tbaa !10
  %41 = getelementptr inbounds nuw i8, ptr %40, i64 24
  %42 = getelementptr inbounds nuw i8, ptr %40, i64 16
  %43 = load i64, ptr %42, align 8, !tbaa !20
  %44 = getelementptr inbounds nuw i8, ptr %39, i64 24
  %45 = call fastcc i32 @_php_iconv_strpos(ptr noundef %7, ptr noundef nonnull %41, i64 noundef %43, ptr noundef nonnull %44, i64 noundef %38, i64 noundef 0, ptr noundef %37, i1 noundef zeroext true)
  %46 = load ptr, ptr %3, align 8, !tbaa !7
  call fastcc void @_php_iconv_show_error(i32 noundef %45, ptr noundef nonnull @_generic_superset_name, ptr noundef %46)
  %47 = icmp eq i32 %45, 0
  %48 = load i64, ptr %7, align 8
  %49 = icmp ne i64 %48, -1
  %or.cond = select i1 %47, i1 %49, i1 false
  br i1 %or.cond, label %50, label %52

50:                                               ; preds = %36
  store i64 %48, ptr %1, align 8, !tbaa !4
  %51 = getelementptr inbounds nuw i8, ptr %1, i64 8
  store i32 4, ptr %51, align 8, !tbaa !4
  br label %54

52:                                               ; preds = %36
  %53 = getelementptr inbounds nuw i8, ptr %1, i64 8
  store i32 2, ptr %53, align 8, !tbaa !4
  br label %54

54:                                               ; preds = %50, %52, %34, %20, %12
  call void @llvm.lifetime.end.p0(i64 8, ptr nonnull %7) #16
  call void @llvm.lifetime.end.p0(i64 8, ptr nonnull %6) #16
  call void @llvm.lifetime.end.p0(i64 8, ptr nonnull %5) #16
  call void @llvm.lifetime.end.p0(i64 8, ptr nonnull %4) #16
  call void @llvm.lifetime.end.p0(i64 8, ptr nonnull %3) #16
  ret void
}